; Function Attrs: mustprogress nounwind uwtable
define internal void @_ZN12_GLOBAL__N_119MSPropertyOpBuilderD0Ev(ptr noundef nonnull align 8 dereferenceable(144) %0) unnamed_addr #0 align 2 {
  store ptr getelementptr inbounds inrange(-16, 56) (i8, ptr @_ZTVN12_GLOBAL__N_119MSPropertyOpBuilderE, i64 16), ptr %0, align 8
  %2 = getelementptr inbounds nuw i8, ptr %0, i64 96
  %3 = tail call noundef i64 @_ZNK4llvm15SmallVectorBaseIjE4sizeEv(ptr noundef nonnull align 8 dereferenceable(16) %2) #18
  %4 = load ptr, ptr %2, align 8
  %5 = getelementptr inbounds i8, ptr %0, i64 112
  %6 = icmp eq ptr %4, %5
  br i1 %6, label %_ZN4llvm11SmallVectorIPN5clang4ExprELj4EED2Ev.exit.i, label %7

7:                                                ; preds = %1
  tail call void @free(ptr noundef %4) #18
  br label %_ZN4llvm11SmallVectorIPN5clang4ExprELj4EED2Ev.exit.i

_ZN4llvm11SmallVectorIPN5clang4ExprELj4EED2Ev.exit.i: ; preds = %7, %1
  store ptr getelementptr inbounds inrange(-16, 56) (i8, ptr @_ZTVN12_GLOBAL__N_115PseudoOpBuilderE, i64 16), ptr %0, align 8
  %8 = getelementptr inbounds nuw i8, ptr %0, i64 32
  %9 = tail call noundef i64 @_ZNK4llvm15SmallVectorBaseIjE4sizeEv(ptr noundef nonnull align 8 dereferenceable(16) %8) #18
  %10 = load ptr, ptr %8, align 8
  %11 = getelementptr inbounds i8, ptr %0, i64 48
  %12 = icmp eq ptr %10, %11
  br i1 %12, label %_ZN12_GLOBAL__N_119MSPropertyOpBuilderD2Ev.exit, label %13

13:                                               ; preds = %_ZN4llvm11SmallVectorIPN5clang4ExprELj4EED2Ev.exit.i
  tail call void @free(ptr noundef %10) #18
  br label %_ZN12_GLOBAL__N_119MSPropertyOpBuilderD2Ev.exit

_ZN12_GLOBAL__N_119MSPropertyOpBuilderD2Ev.exit:  ; preds = %_ZN4llvm11SmallVectorIPN5clang4ExprELj4EED2Ev.exit.i, %13
  tail call void @_ZdlPvm(ptr noundef nonnull %0, i64 noundef 144) #19
  ret void
}